; ModuleID = 'source-C-CXX/61/1373.c'
source_filename = "source-C-CXX/61/1373.c"
target datalayout = "e-m:e-p270:32:32-p271:32:32-p272:64:64-i64:64-f80:128-n8:16:32:64-S128"
target triple = "x86_64-pc-linux-gnu"

%struct._IO_FILE = type { i32, i8*, i8*, i8*, i8*, i8*, i8*, i8*, i8*, i8*, i8*, i8*, %struct._IO_marker*, %struct._IO_FILE*, i32, i32, i64, i16, i8, [1 x i8], i8*, i64, %struct._IO_codecvt*, %struct._IO_wide_data*, %struct._IO_FILE*, i8*, i64, i32, [20 x i8] }
%struct._IO_marker = type opaque
%struct._IO_codecvt = type opaque
%struct._IO_wide_data = type opaque

@stdin = external local_unnamed_addr global %struct._IO_FILE*, align 8

; Function Attrs: nofree nounwind sspstrong uwtable
define dso_local void @main() local_unnamed_addr #0 {
  br label %1

1:                                                ; preds = %0, %14
  %2 = phi i1 [ true, %0 ], [ %15, %14 ]
  %3 = load %struct._IO_FILE*, %struct._IO_FILE** @stdin, align 8, !tbaa !5
  %4 = tail call i32 @getc(%struct._IO_FILE* %3) #3
  %5 = shl i32 %4, 24
  %6 = icmp eq i32 %5, 536870912
  br i1 %6, label %9, label %7

7:                                                ; preds = %1
  %8 = ashr exact i32 %5, 24
  br label %10

9:                                                ; preds = %1
  br i1 %2, label %10, label %14

10:                                               ; preds = %9, %7
  %11 = phi i32 [ %8, %7 ], [ 32, %9 ]
  %12 = xor i1 %6, true
  %13 = tail call i32 @putchar(i32 %11)
  br label %14

14:                                               ; preds = %10, %9
  %15 = phi i1 [ false, %9 ], [ %12, %10 ]
  %16 = and i32 %4, 255
  %17 = icmp eq i32 %16, 10
  br i1 %17, label %18, label %1, !llvm.loop !9

18:                                               ; preds = %14
  ret void
}

; Function Attrs: nofree nounwind
declare noundef i32 @getc(%struct._IO_FILE* nocapture noundef) local_unnamed_addr #1

; Function Attrs: nofree nounwind
declare noundef i32 @putchar(i32 noundef) local_unnamed_addr #2


!llvm.module.flags = !{!0, !1, !2, !3}
!llvm.ident = !{!4}

!0 = !{i32 1, !"wchar_size", i32 4}
!1 = !{i32 7, !"PIC Level", i32 2}
!2 = !{i32 7, !"PIE Level", i32 2}
!3 = !{i32 7, !"uwtable", i32 1}
!4 = !{!"clang version 13.0.0"}
!5 = !{!6, !6, i64 0}
!6 = !{!"any pointer", !7, i64 0}
!7 = !{!"omnipotent char", !8, i64 0}
!8 = !{!"Simple C/C++ TBAA"}
!9 = distinct !{!9, !10}
!10 = !{!"llvm.loop.mustprogress"}
